target datalayout = "e-m:e-p270:32:32-p271:32:32-p272:64:64-i64:64-i128:128-f80:128-n8:16:32:64-S128"
target triple = "x86_64-pc-linux-gnu"

%struct.tsi_fake_handshaker = type { %struct.tsi_handshaker, i32, i32, i32, %struct.tsi_fake_frame, %struct.tsi_fake_frame, ptr, i64, i32 }
%struct.tsi_handshaker = type { ptr, i8, i8, i8 }
%struct.tsi_fake_frame = type { ptr, i64, i64, i64, i32 }

; Function Attrs: mustprogress uwtable
define linkonce_odr noundef ptr @_ZN9grpc_core6ZallocI19tsi_fake_handshakerEEPT_v() #4 comdat {
  %1 = call ptr @gpr_zalloc(i64 noundef 136)
  ret ptr %1
}

; Function Attrs: mustprogress uwtable
define noundef ptr @_Z26tsi_create_fake_handshakeri(i32 noundef %0) #4 {
  %2 = alloca i32, align 4
  %3 = alloca ptr, align 8
  store i32 %0, ptr %2, align 4, !tbaa !23
  call void @llvm.lifetime.start.p0(i64 8, ptr %3) #3
  %4 = call noundef ptr @_ZN9grpc_core6ZallocI19tsi_fake_handshakerEEPT_v()
  store ptr %4, ptr %3, align 8, !tbaa !27
  %5 = load ptr, ptr %3, align 8, !tbaa !27
  %6 = getelementptr inbounds nuw %struct.tsi_fake_handshaker, ptr %5, i32 0, i32 0
  %7 = getelementptr inbounds nuw %struct.tsi_handshaker, ptr %6, i32 0, i32 0
  store ptr @_ZL17handshaker_vtable, ptr %7, align 8, !tbaa !29
  %8 = load i32, ptr %2, align 4, !tbaa !23
  %9 = load ptr, ptr %3, align 8, !tbaa !27
  %10 = getelementptr inbounds nuw %struct.tsi_fake_handshaker, ptr %9, i32 0, i32 1
  store i32 %8, ptr %10, align 8, !tbaa !37
  %11 = load ptr, ptr %3, align 8, !tbaa !27
  %12 = getelementptr inbounds nuw %struct.tsi_fake_handshaker, ptr %11, i32 0, i32 8
  store i32 11, ptr %12, align 8, !tbaa !38
  %13 = load ptr, ptr %3, align 8, !tbaa !27
  %14 = getelementptr inbounds nuw %struct.tsi_fake_handshaker, ptr %13, i32 0, i32 7
  store i64 256, ptr %14, align 8, !tbaa !39
  %15 = load ptr, ptr %3, align 8, !tbaa !27
  %16 = getelementptr inbounds nuw %struct.tsi_fake_handshaker, ptr %15, i32 0, i32 7
  %17 = load i64, ptr %16, align 8, !tbaa !39
  %18 = call ptr @gpr_malloc(i64 noundef %17)
  %19 = load ptr, ptr %3, align 8, !tbaa !27
  %20 = getelementptr inbounds nuw %struct.tsi_fake_handshaker, ptr %19, i32 0, i32 6
  store ptr %18, ptr %20, align 8, !tbaa !40
  %21 = load i32, ptr %2, align 4, !tbaa !23
  %22 = icmp ne i32 %21, 0
  br i1 %22, label %23, label %28

23:                                               ; preds = %1
  %24 = load ptr, ptr %3, align 8, !tbaa !27
  %25 = getelementptr inbounds nuw %struct.tsi_fake_handshaker, ptr %24, i32 0, i32 3
  store i32 0, ptr %25, align 8, !tbaa !41
  %26 = load ptr, ptr %3, align 8, !tbaa !27
  %27 = getelementptr inbounds nuw %struct.tsi_fake_handshaker, ptr %26, i32 0, i32 2
  store i32 0, ptr %27, align 4, !tbaa !42
  br label %33

28:                                               ; preds = %1
  %29 = load ptr, ptr %3, align 8, !tbaa !27
  %30 = getelementptr inbounds nuw %struct.tsi_fake_handshaker, ptr %29, i32 0, i32 3
  store i32 1, ptr %30, align 8, !tbaa !41
  %31 = load ptr, ptr %3, align 8, !tbaa !27
  %32 = getelementptr inbounds nuw %struct.tsi_fake_handshaker, ptr %31, i32 0, i32 2
  store i32 1, ptr %32, align 4, !tbaa !42
  br label %33

33:                                               ; preds = %28, %23
  %34 = load ptr, ptr %3, align 8, !tbaa !27
  %35 = getelementptr inbounds nuw %struct.tsi_fake_handshaker, ptr %34, i32 0, i32 0
  call void @llvm.lifetime.end.p0(i64 8, ptr %3) #3
  ret ptr %35
}