; Function Attrs: mustprogress uwtable
define noundef ptr @_Z26tsi_create_fake_handshakeri(i32 noundef %0) local_unnamed_addr #3 {
  %2 = tail call noundef ptr @gpr_zalloc(i64 noundef 136)
  store ptr @_ZL17handshaker_vtable, ptr %2, align 8, !tbaa !25
  %3 = getelementptr inbounds nuw i8, ptr %2, i64 16
  store i32 %0, ptr %3, align 8, !tbaa !34
  %4 = getelementptr inbounds nuw i8, ptr %2, i64 128
  store i32 11, ptr %4, align 8, !tbaa !35
  %5 = getelementptr inbounds nuw i8, ptr %2, i64 120
  store i64 256, ptr %5, align 8, !tbaa !36
  %6 = tail call ptr @gpr_malloc(i64 noundef 256)
  %7 = getelementptr inbounds nuw i8, ptr %2, i64 112
  store ptr %6, ptr %7, align 8, !tbaa !37
  %.not = icmp eq i32 %0, 0
  %spec.select = zext i1 %.not to i32
  %8 = getelementptr inbounds nuw i8, ptr %2, i64 24
  store i32 %spec.select, ptr %8, align 8, !tbaa !38
  %9 = getelementptr inbounds nuw i8, ptr %2, i64 20
  store i32 %spec.select, ptr %9, align 4, !tbaa !39
  ret ptr %2
}